; Function Attrs: mustprogress uwtable
define hidden void @_ZN3smt10theory_lra12new_diseq_ehEii(ptr noundef nonnull readonly align 8 captures(none) dereferenceable(72) %0, i32 noundef %1, i32 noundef %2) unnamed_addr #4 align 2 {
  %4 = getelementptr inbounds nuw i8, ptr %0, i64 64
  %5 = load ptr, ptr %4, align 8, !tbaa !506
  %6 = getelementptr inbounds nuw i8, ptr %5, i64 432
  %7 = load i32, ptr %6, align 8, !tbaa !766
  %8 = add i32 %7, 1
  store i32 %8, ptr %6, align 8, !tbaa !766
  %9 = getelementptr inbounds nuw i8, ptr %5, i64 32
  tail call void @_ZN3smt16arith_eq_adapter12new_diseq_ehEii(ptr noundef nonnull align 8 dereferenceable(64) %9, i32 noundef %1, i32 noundef %2)
  ret void
}